target datalayout = "e-m:e-p270:32:32-p271:32:32-p272:64:64-i64:64-i128:128-f80:128-n8:16:32:64-S128"
target triple = "x86_64-pc-linux-gnu"

@hf_dis_category_land = internal global i32 0, align 4
@hf_dis_category_air = internal global i32 0, align 4
@hf_dis_category_surface = internal global i32 0, align 4
@hf_dis_category_subsurface = internal global i32 0, align 4
@hf_dis_category_space = internal global i32 0, align 4
@hf_dis_category = internal global i32 0, align 4
@entityKind = internal global i32 0, align 4
@entityDomain = internal global i32 0, align 4
@.str.4057 = private unnamed_addr constant [28 x i8] c"%s, (%u:%u:%u:%u:%u:%u:%u) \00", align 1

; Function Attrs: nounwind uwtable
define internal i32 @dissect_DIS_FIELDS_ENTITY_TYPE_RECORD(ptr noundef %0, ptr noundef %1, i32 noundef %2, ptr noundef %3, i32 noundef %4, i32 noundef %5, i32 noundef %6, i32 noundef %7, i32 noundef %8, i32 noundef %9, i32 noundef %10, i32 noundef %11) #0 {
  %13 = alloca ptr, align 8
  %14 = alloca ptr, align 8
  %15 = alloca i32, align 4
  %16 = alloca ptr, align 8
  %17 = alloca i32, align 4
  %18 = alloca i32, align 4
  %19 = alloca i32, align 4
  %20 = alloca i32, align 4
  %21 = alloca i32, align 4
  %22 = alloca i32, align 4
  %23 = alloca i32, align 4
  %24 = alloca i32, align 4
  %25 = alloca i16, align 2
  %26 = alloca i8, align 1
  %27 = alloca i8, align 1
  %28 = alloca i8, align 1
  %29 = alloca i8, align 1
  %30 = alloca ptr, align 8
  %31 = alloca i32, align 4
  store ptr %0, ptr %13, align 8
  store ptr %1, ptr %14, align 8
  store i32 %2, ptr %15, align 4
  store ptr %3, ptr %16, align 8
  store i32 %4, ptr %17, align 4
  store i32 %5, ptr %18, align 4
  store i32 %6, ptr %19, align 4
  store i32 %7, ptr %20, align 4
  store i32 %8, ptr %21, align 4
  store i32 %9, ptr %22, align 4
  store i32 %10, ptr %23, align 4
  store i32 %11, ptr %24, align 4
  %32 = load i32, ptr %21, align 4
  store i32 %32, ptr %31, align 4
  %33 = load ptr, ptr %13, align 8
  %34 = load i32, ptr %15, align 4
  %35 = call zeroext i8 @tvb_get_guint8(ptr noundef %33, i32 noundef %34)
  %36 = zext i8 %35 to i32
  store i32 %36, ptr @entityKind, align 4
  %37 = load ptr, ptr %13, align 8
  %38 = load i32, ptr %15, align 4
  %39 = add i32 %38, 1
  %40 = call zeroext i8 @tvb_get_guint8(ptr noundef %37, i32 noundef %39)
  %41 = zext i8 %40 to i32
  store i32 %41, ptr @entityDomain, align 4
  %42 = load ptr, ptr %13, align 8
  %43 = load i32, ptr %15, align 4
  %44 = add i32 %43, 2
  %45 = call zeroext i16 @tvb_get_ntohs(ptr noundef %42, i32 noundef %44)
  store i16 %45, ptr %25, align 2
  %46 = load ptr, ptr %13, align 8
  %47 = load i32, ptr %15, align 4
  %48 = add i32 %47, 4
  %49 = call zeroext i8 @tvb_get_guint8(ptr noundef %46, i32 noundef %48)
  store i8 %49, ptr %26, align 1
  %50 = load ptr, ptr %13, align 8
  %51 = load i32, ptr %15, align 4
  %52 = add i32 %51, 5
  %53 = call zeroext i8 @tvb_get_guint8(ptr noundef %50, i32 noundef %52)
  store i8 %53, ptr %27, align 1
  %54 = load ptr, ptr %13, align 8
  %55 = load i32, ptr %15, align 4
  %56 = add i32 %55, 6
  %57 = call zeroext i8 @tvb_get_guint8(ptr noundef %54, i32 noundef %56)
  store i8 %57, ptr %28, align 1
  %58 = load ptr, ptr %13, align 8
  %59 = load i32, ptr %15, align 4
  %60 = add i32 %59, 7
  %61 = call zeroext i8 @tvb_get_guint8(ptr noundef %58, i32 noundef %60)
  store i8 %61, ptr %29, align 1
  %62 = load ptr, ptr %14, align 8
  %63 = load ptr, ptr %13, align 8
  %64 = load i32, ptr %15, align 4
  %65 = load i32, ptr %17, align 4
  %66 = load ptr, ptr %16, align 8
  %67 = load i32, ptr @entityKind, align 4
  %68 = load i32, ptr @entityDomain, align 4
  %69 = load i16, ptr %25, align 2
  %70 = zext i16 %69 to i32
  %71 = load i8, ptr %26, align 1
  %72 = zext i8 %71 to i32
  %73 = load i8, ptr %27, align 1
  %74 = zext i8 %73 to i32
  %75 = load i8, ptr %28, align 1
  %76 = zext i8 %75 to i32
  %77 = load i8, ptr %29, align 1
  %78 = zext i8 %77 to i32
  %79 = call ptr (ptr, ptr, i32, i32, i32, ptr, ptr, ...) @proto_tree_add_subtree_format(ptr noundef %62, ptr noundef %63, i32 noundef %64, i32 noundef 8, i32 noundef %65, ptr noundef null, ptr noundef @.str.4057, ptr noundef %66, i32 noundef %67, i32 noundef %68, i32 noundef %70, i32 noundef %72, i32 noundef %74, i32 noundef %76, i32 noundef %78)
  store ptr %79, ptr %30, align 8
  %80 = load ptr, ptr %30, align 8
  %81 = load i32, ptr %18, align 4
  %82 = load ptr, ptr %13, align 8
  %83 = load i32, ptr %15, align 4
  %84 = load i32, ptr @entityKind, align 4
  %85 = call ptr @proto_tree_add_uint(ptr noundef %80, i32 noundef %81, ptr noundef %82, i32 noundef %83, i32 noundef 1, i32 noundef %84)
  %86 = load i32, ptr %15, align 4
  %87 = add i32 %86, 1
  store i32 %87, ptr %15, align 4
  %88 = load ptr, ptr %30, align 8
  %89 = load i32, ptr %19, align 4
  %90 = load ptr, ptr %13, align 8
  %91 = load i32, ptr %15, align 4
  %92 = load i32, ptr @entityDomain, align 4
  %93 = call ptr @proto_tree_add_uint(ptr noundef %88, i32 noundef %89, ptr noundef %90, i32 noundef %91, i32 noundef 1, i32 noundef %92)
  %94 = load i32, ptr %15, align 4
  %95 = add i32 %94, 1
  store i32 %95, ptr %15, align 4
  %96 = load ptr, ptr %30, align 8
  %97 = load i32, ptr %20, align 4
  %98 = load ptr, ptr %13, align 8
  %99 = load i32, ptr %15, align 4
  %100 = load i16, ptr %25, align 2
  %101 = zext i16 %100 to i32
  %102 = call ptr @proto_tree_add_uint(ptr noundef %96, i32 noundef %97, ptr noundef %98, i32 noundef %99, i32 noundef 2, i32 noundef %101)
  %103 = load i32, ptr %15, align 4
  %104 = add i32 %103, 2
  store i32 %104, ptr %15, align 4
  %105 = load i32, ptr @entityKind, align 4
  %106 = icmp eq i32 %105, 1
  br i1 %106, label %107, label %124

107:                                              ; preds = %12
  %108 = load i32, ptr %21, align 4
  %109 = load i32, ptr @hf_dis_category, align 4
  %110 = icmp eq i32 %108, %109
  br i1 %110, label %111, label %124

111:                                              ; preds = %107
  %112 = load i32, ptr @entityDomain, align 4
  switch i32 %112, label %123 [
    i32 1, label %113
    i32 2, label %115
    i32 3, label %117
    i32 4, label %119
    i32 5, label %121
  ]

113:                                              ; preds = %111
  %114 = load i32, ptr @hf_dis_category_land, align 4
  store i32 %114, ptr %31, align 4
  br label %123

115:                                              ; preds = %111
  %116 = load i32, ptr @hf_dis_category_air, align 4
  store i32 %116, ptr %31, align 4
  br label %123

117:                                              ; preds = %111
  %118 = load i32, ptr @hf_dis_category_surface, align 4
  store i32 %118, ptr %31, align 4
  br label %123

119:                                              ; preds = %111
  %120 = load i32, ptr @hf_dis_category_subsurface, align 4
  store i32 %120, ptr %31, align 4
  br label %123

121:                                              ; preds = %111
  %122 = load i32, ptr @hf_dis_category_space, align 4
  store i32 %122, ptr %31, align 4
  br label %123

123:                                              ; preds = %121, %119, %117, %115, %113, %111
  br label %124

124:                                              ; preds = %123, %107, %12
  %125 = load ptr, ptr %30, align 8
  %126 = load i32, ptr %31, align 4
  %127 = load ptr, ptr %13, align 8
  %128 = load i32, ptr %15, align 4
  %129 = load i8, ptr %26, align 1
  %130 = zext i8 %129 to i32
  %131 = call ptr @proto_tree_add_uint(ptr noundef %125, i32 noundef %126, ptr noundef %127, i32 noundef %128, i32 noundef 1, i32 noundef %130)
  %132 = load i32, ptr %15, align 4
  %133 = add i32 %132, 1
  store i32 %133, ptr %15, align 4
  %134 = load ptr, ptr %30, align 8
  %135 = load i32, ptr %22, align 4
  %136 = load ptr, ptr %13, align 8
  %137 = load i32, ptr %15, align 4
  %138 = load i8, ptr %27, align 1
  %139 = zext i8 %138 to i32
  %140 = call ptr @proto_tree_add_uint(ptr noundef %134, i32 noundef %135, ptr noundef %136, i32 noundef %137, i32 noundef 1, i32 noundef %139)
  %141 = load i32, ptr %15, align 4
  %142 = add i32 %141, 1
  store i32 %142, ptr %15, align 4
  %143 = load ptr, ptr %30, align 8
  %144 = load i32, ptr %23, align 4
  %145 = load ptr, ptr %13, align 8
  %146 = load i32, ptr %15, align 4
  %147 = load i8, ptr %28, align 1
  %148 = zext i8 %147 to i32
  %149 = call ptr @proto_tree_add_uint(ptr noundef %143, i32 noundef %144, ptr noundef %145, i32 noundef %146, i32 noundef 1, i32 noundef %148)
  %150 = load i32, ptr %15, align 4
  %151 = add i32 %150, 1
  store i32 %151, ptr %15, align 4
  %152 = load ptr, ptr %30, align 8
  %153 = load i32, ptr %24, align 4
  %154 = load ptr, ptr %13, align 8
  %155 = load i32, ptr %15, align 4
  %156 = load i8, ptr %29, align 1
  %157 = zext i8 %156 to i32
  %158 = call ptr @proto_tree_add_uint(ptr noundef %152, i32 noundef %153, ptr noundef %154, i32 noundef %155, i32 noundef 1, i32 noundef %157)
  %159 = load i32, ptr %15, align 4
  %160 = add i32 %159, 1
  store i32 %160, ptr %15, align 4
  %161 = load i32, ptr %15, align 4
  ret i32 %161
}