; Function Attrs: nounwind uwtable
define internal fastcc noundef i32 @dissect_DIS_FIELDS_ENTITY_TYPE_RECORD(ptr noundef %0, ptr noundef %1, i32 noundef %2, ptr noundef %3, i32 noundef %4, i32 noundef %5, i32 noundef %6, i32 noundef %7, i32 noundef %8, i32 noundef %9, i32 noundef %10, i32 noundef %11) unnamed_addr #0 {
  %13 = tail call zeroext i8 @tvb_get_guint8(ptr noundef %0, i32 noundef %2) #4
  %14 = zext i8 %13 to i32
  store i32 %14, ptr @entityKind, align 4
  %15 = add i32 %2, 1
  %16 = tail call zeroext i8 @tvb_get_guint8(ptr noundef %0, i32 noundef %15) #4
  %17 = zext i8 %16 to i32
  store i32 %17, ptr @entityDomain, align 4
  %18 = add i32 %2, 2
  %19 = tail call zeroext i16 @tvb_get_ntohs(ptr noundef %0, i32 noundef %18) #4
  %20 = add i32 %2, 4
  %21 = tail call zeroext i8 @tvb_get_guint8(ptr noundef %0, i32 noundef %20) #4
  %22 = add i32 %2, 5
  %23 = tail call zeroext i8 @tvb_get_guint8(ptr noundef %0, i32 noundef %22) #4
  %24 = add i32 %2, 6
  %25 = tail call zeroext i8 @tvb_get_guint8(ptr noundef %0, i32 noundef %24) #4
  %26 = add i32 %2, 7
  %27 = tail call zeroext i8 @tvb_get_guint8(ptr noundef %0, i32 noundef %26) #4
  %28 = load i32, ptr @entityKind, align 4
  %29 = load i32, ptr @entityDomain, align 4
  %30 = zext i16 %19 to i32
  %31 = zext i8 %21 to i32
  %32 = zext i8 %23 to i32
  %33 = zext i8 %25 to i32
  %34 = zext i8 %27 to i32
  %35 = tail call ptr (ptr, ptr, i32, i32, i32, ptr, ptr, ...) @proto_tree_add_subtree_format(ptr noundef %1, ptr noundef %0, i32 noundef %2, i32 noundef 8, i32 noundef %4, ptr noundef null, ptr noundef nonnull @.str.4057, ptr noundef %3, i32 noundef %28, i32 noundef %29, i32 noundef %30, i32 noundef %31, i32 noundef %32, i32 noundef %33, i32 noundef %34) #4
  %36 = load i32, ptr @entityKind, align 4
  %37 = tail call ptr @proto_tree_add_uint(ptr noundef %35, i32 noundef %5, ptr noundef %0, i32 noundef %2, i32 noundef 1, i32 noundef %36) #4
  %38 = load i32, ptr @entityDomain, align 4
  %39 = tail call ptr @proto_tree_add_uint(ptr noundef %35, i32 noundef %6, ptr noundef %0, i32 noundef %15, i32 noundef 1, i32 noundef %38) #4
  %40 = tail call ptr @proto_tree_add_uint(ptr noundef %35, i32 noundef %7, ptr noundef %0, i32 noundef %18, i32 noundef 2, i32 noundef %30) #4
  %41 = load i32, ptr @entityKind, align 4
  %42 = icmp eq i32 %41, 1
  %43 = load i32, ptr @hf_dis_category, align 4
  %44 = icmp eq i32 %8, %43
  %or.cond = select i1 %42, i1 %44, i1 false
  br i1 %or.cond, label %45, label %57

45:                                               ; preds = %12
  %46 = load i32, ptr @entityDomain, align 4
  switch i32 %46, label %57 [
    i32 1, label %47
    i32 2, label %49
    i32 3, label %51
    i32 4, label %53
    i32 5, label %55
  ]

47:                                               ; preds = %45
  %48 = load i32, ptr @hf_dis_category_land, align 4
  br label %57

49:                                               ; preds = %45
  %50 = load i32, ptr @hf_dis_category_air, align 4
  br label %57

51:                                               ; preds = %45
  %52 = load i32, ptr @hf_dis_category_surface, align 4
  br label %57

53:                                               ; preds = %45
  %54 = load i32, ptr @hf_dis_category_subsurface, align 4
  br label %57

55:                                               ; preds = %45
  %56 = load i32, ptr @hf_dis_category_space, align 4
  br label %57

57:                                               ; preds = %45, %47, %49, %51, %53, %55, %12
  %.0 = phi i32 [ %8, %45 ], [ %56, %55 ], [ %54, %53 ], [ %52, %51 ], [ %50, %49 ], [ %48, %47 ], [ %8, %12 ]
  %58 = tail call ptr @proto_tree_add_uint(ptr noundef %35, i32 noundef %.0, ptr noundef %0, i32 noundef %20, i32 noundef 1, i32 noundef %31) #4
  %59 = tail call ptr @proto_tree_add_uint(ptr noundef %35, i32 noundef %9, ptr noundef %0, i32 noundef %22, i32 noundef 1, i32 noundef %32) #4
  %60 = tail call ptr @proto_tree_add_uint(ptr noundef %35, i32 noundef %10, ptr noundef %0, i32 noundef %24, i32 noundef 1, i32 noundef %33) #4
  %61 = tail call ptr @proto_tree_add_uint(ptr noundef %35, i32 noundef %11, ptr noundef %0, i32 noundef %26, i32 noundef 1, i32 noundef %34) #4
  %62 = add i32 %2, 8
  ret i32 %62
}